
riscv-tests//rv64uzfh-p-fcvt_w.elf:     file format elf64-littleriscv


Disassembly of section .text.init:

0000000080000000 <_start>:
    80000000:	0500006f          	j	80000050 <reset_vector>

0000000080000004 <trap_vector>:
    80000004:	34202f73          	csrr	t5,mcause
    80000008:	00800f93          	li	t6,8
    8000000c:	03ff0863          	beq	t5,t6,8000003c <write_tohost>
    80000010:	00900f93          	li	t6,9
    80000014:	03ff0463          	beq	t5,t6,8000003c <write_tohost>
    80000018:	00b00f93          	li	t6,11
    8000001c:	03ff0063          	beq	t5,t6,8000003c <write_tohost>
    80000020:	00000f13          	li	t5,0
    80000024:	000f0463          	beqz	t5,8000002c <trap_vector+0x28>
    80000028:	000f0067          	jr	t5
    8000002c:	34202f73          	csrr	t5,mcause
    80000030:	000f5463          	bgez	t5,80000038 <handle_exception>
    80000034:	0040006f          	j	80000038 <handle_exception>

0000000080000038 <handle_exception>:
    80000038:	5391e193          	or	gp,gp,1337

000000008000003c <write_tohost>:
    8000003c:	00001f17          	auipc	t5,0x1
    80000040:	fc3f2223          	sw	gp,-60(t5) # 80001000 <tohost>
    80000044:	00001f17          	auipc	t5,0x1
    80000048:	fc0f2023          	sw	zero,-64(t5) # 80001004 <tohost+0x4>
    8000004c:	ff1ff06f          	j	8000003c <write_tohost>

0000000080000050 <reset_vector>:
    80000050:	00000093          	li	ra,0
    80000054:	00000113          	li	sp,0
    80000058:	00000193          	li	gp,0
    8000005c:	00000213          	li	tp,0
    80000060:	00000293          	li	t0,0
    80000064:	00000313          	li	t1,0
    80000068:	00000393          	li	t2,0
    8000006c:	00000413          	li	s0,0
    80000070:	00000493          	li	s1,0
    80000074:	00000513          	li	a0,0
    80000078:	00000593          	li	a1,0
    8000007c:	00000613          	li	a2,0
    80000080:	00000693          	li	a3,0
    80000084:	00000713          	li	a4,0
    80000088:	00000793          	li	a5,0
    8000008c:	00000813          	li	a6,0
    80000090:	00000893          	li	a7,0
    80000094:	00000913          	li	s2,0
    80000098:	00000993          	li	s3,0
    8000009c:	00000a13          	li	s4,0
    800000a0:	00000a93          	li	s5,0
    800000a4:	00000b13          	li	s6,0
    800000a8:	00000b93          	li	s7,0
    800000ac:	00000c13          	li	s8,0
    800000b0:	00000c93          	li	s9,0
    800000b4:	00000d13          	li	s10,0
    800000b8:	00000d93          	li	s11,0
    800000bc:	00000e13          	li	t3,0
    800000c0:	00000e93          	li	t4,0
    800000c4:	00000f13          	li	t5,0
    800000c8:	00000f93          	li	t6,0
    800000cc:	f1402573          	csrr	a0,mhartid
    800000d0:	00051063          	bnez	a0,800000d0 <reset_vector+0x80>
    800000d4:	00000297          	auipc	t0,0x0
    800000d8:	01028293          	add	t0,t0,16 # 800000e4 <reset_vector+0x94>
    800000dc:	30529073          	csrw	mtvec,t0
    800000e0:	18005073          	csrw	satp,0
    800000e4:	00000297          	auipc	t0,0x0
    800000e8:	02428293          	add	t0,t0,36 # 80000108 <reset_vector+0xb8>
    800000ec:	30529073          	csrw	mtvec,t0
    800000f0:	0010029b          	addw	t0,zero,1
    800000f4:	03529293          	sll	t0,t0,0x35
    800000f8:	fff28293          	add	t0,t0,-1
    800000fc:	3b029073          	csrw	pmpaddr0,t0
    80000100:	01f00293          	li	t0,31
    80000104:	3a029073          	csrw	pmpcfg0,t0
    80000108:	30405073          	csrw	mie,0
    8000010c:	00000297          	auipc	t0,0x0
    80000110:	01428293          	add	t0,t0,20 # 80000120 <reset_vector+0xd0>
    80000114:	30529073          	csrw	mtvec,t0
    80000118:	30205073          	csrw	medeleg,0
    8000011c:	30305073          	csrw	mideleg,0
    80000120:	00000193          	li	gp,0
    80000124:	00000297          	auipc	t0,0x0
    80000128:	ee028293          	add	t0,t0,-288 # 80000004 <trap_vector>
    8000012c:	30529073          	csrw	mtvec,t0
    80000130:	00100513          	li	a0,1
    80000134:	01f51513          	sll	a0,a0,0x1f
    80000138:	00055c63          	bgez	a0,80000150 <reset_vector+0x100>
    8000013c:	0ff0000f          	fence
    80000140:	00100193          	li	gp,1
    80000144:	05d00893          	li	a7,93
    80000148:	00000513          	li	a0,0
    8000014c:	0000006b          	.word	0x0000006b
    80000150:	00000293          	li	t0,0
    80000154:	00028a63          	beqz	t0,80000168 <reset_vector+0x118>
    80000158:	10529073          	csrw	stvec,t0
    8000015c:	0000b2b7          	lui	t0,0xb
    80000160:	1092829b          	addw	t0,t0,265 # b109 <_start-0x7fff4ef7>
    80000164:	30229073          	csrw	medeleg,t0
    80000168:	30005073          	csrw	mstatus,0
    8000016c:	00002537          	lui	a0,0x2
    80000170:	30052073          	csrs	mstatus,a0
    80000174:	00305073          	csrw	fcsr,0
    80000178:	00000297          	auipc	t0,0x0
    8000017c:	01428293          	add	t0,t0,20 # 8000018c <test_2>
    80000180:	34129073          	csrw	mepc,t0
    80000184:	f1402573          	csrr	a0,mhartid
    80000188:	30200073          	mret

000000008000018c <test_2>:
    8000018c:	00200193          	li	gp,2
    80000190:	00002517          	auipc	a0,0x2
    80000194:	e7050513          	add	a0,a0,-400 # 80002000 <test_2_data>
    80000198:	00051507          	flh	fa0,0(a0)
    8000019c:	00251587          	flh	fa1,2(a0)
    800001a0:	00451607          	flh	fa2,4(a0)
    800001a4:	00651683          	lh	a3,6(a0)
    800001a8:	c4051553          	fcvt.w.h	a0,fa0,rtz
    800001ac:	001015f3          	fsflags	a1,zero
    800001b0:	00100613          	li	a2,1
    800001b4:	72d51a63          	bne	a0,a3,800008e8 <fail>
    800001b8:	72c59863          	bne	a1,a2,800008e8 <fail>

00000000800001bc <test_3>:
    800001bc:	00300193          	li	gp,3
    800001c0:	00002517          	auipc	a0,0x2
    800001c4:	e4a50513          	add	a0,a0,-438 # 8000200a <test_3_data>
    800001c8:	00051507          	flh	fa0,0(a0)
    800001cc:	00251587          	flh	fa1,2(a0)
    800001d0:	00451607          	flh	fa2,4(a0)
    800001d4:	00651683          	lh	a3,6(a0)
    800001d8:	c4051553          	fcvt.w.h	a0,fa0,rtz
    800001dc:	001015f3          	fsflags	a1,zero
    800001e0:	00000613          	li	a2,0
    800001e4:	70d51263          	bne	a0,a3,800008e8 <fail>
    800001e8:	70c59063          	bne	a1,a2,800008e8 <fail>

00000000800001ec <test_4>:
    800001ec:	00400193          	li	gp,4
    800001f0:	00002517          	auipc	a0,0x2
    800001f4:	e2450513          	add	a0,a0,-476 # 80002014 <test_4_data>
    800001f8:	00051507          	flh	fa0,0(a0)
    800001fc:	00251587          	flh	fa1,2(a0)
    80000200:	00451607          	flh	fa2,4(a0)
    80000204:	00651683          	lh	a3,6(a0)
    80000208:	c4051553          	fcvt.w.h	a0,fa0,rtz
    8000020c:	001015f3          	fsflags	a1,zero
    80000210:	00100613          	li	a2,1
    80000214:	6cd51a63          	bne	a0,a3,800008e8 <fail>
    80000218:	6cc59863          	bne	a1,a2,800008e8 <fail>

000000008000021c <test_5>:
    8000021c:	00500193          	li	gp,5
    80000220:	00002517          	auipc	a0,0x2
    80000224:	dfe50513          	add	a0,a0,-514 # 8000201e <test_5_data>
    80000228:	00051507          	flh	fa0,0(a0)
    8000022c:	00251587          	flh	fa1,2(a0)
    80000230:	00451607          	flh	fa2,4(a0)
    80000234:	00651683          	lh	a3,6(a0)
    80000238:	c4051553          	fcvt.w.h	a0,fa0,rtz
    8000023c:	001015f3          	fsflags	a1,zero
    80000240:	00100613          	li	a2,1
    80000244:	6ad51263          	bne	a0,a3,800008e8 <fail>
    80000248:	6ac59063          	bne	a1,a2,800008e8 <fail>

000000008000024c <test_6>:
    8000024c:	00600193          	li	gp,6
    80000250:	00002517          	auipc	a0,0x2
    80000254:	dd850513          	add	a0,a0,-552 # 80002028 <test_6_data>
    80000258:	00051507          	flh	fa0,0(a0)
    8000025c:	00251587          	flh	fa1,2(a0)
    80000260:	00451607          	flh	fa2,4(a0)
    80000264:	00651683          	lh	a3,6(a0)
    80000268:	c4051553          	fcvt.w.h	a0,fa0,rtz
    8000026c:	001015f3          	fsflags	a1,zero
    80000270:	00000613          	li	a2,0
    80000274:	66d51a63          	bne	a0,a3,800008e8 <fail>
    80000278:	66c59863          	bne	a1,a2,800008e8 <fail>

000000008000027c <test_7>:
    8000027c:	00700193          	li	gp,7
    80000280:	00002517          	auipc	a0,0x2
    80000284:	db250513          	add	a0,a0,-590 # 80002032 <test_7_data>
    80000288:	00051507          	flh	fa0,0(a0)
    8000028c:	00251587          	flh	fa1,2(a0)
    80000290:	00451607          	flh	fa2,4(a0)
    80000294:	00651683          	lh	a3,6(a0)
    80000298:	c4051553          	fcvt.w.h	a0,fa0,rtz
    8000029c:	001015f3          	fsflags	a1,zero
    800002a0:	00100613          	li	a2,1
    800002a4:	64d51263          	bne	a0,a3,800008e8 <fail>
    800002a8:	64c59063          	bne	a1,a2,800008e8 <fail>

00000000800002ac <test_8>:
    800002ac:	00800193          	li	gp,8
    800002b0:	00002517          	auipc	a0,0x2
    800002b4:	d8c50513          	add	a0,a0,-628 # 8000203c <test_8_data>
    800002b8:	00051507          	flh	fa0,0(a0)
    800002bc:	00251587          	flh	fa1,2(a0)
    800002c0:	00451607          	flh	fa2,4(a0)
    800002c4:	00651683          	lh	a3,6(a0)
    800002c8:	c4051553          	fcvt.w.h	a0,fa0,rtz
    800002cc:	001015f3          	fsflags	a1,zero
    800002d0:	00000613          	li	a2,0
    800002d4:	60d51a63          	bne	a0,a3,800008e8 <fail>
    800002d8:	60c59863          	bne	a1,a2,800008e8 <fail>

00000000800002dc <test_9>:
    800002dc:	00900193          	li	gp,9
    800002e0:	00002517          	auipc	a0,0x2
    800002e4:	d6650513          	add	a0,a0,-666 # 80002046 <test_9_data>
    800002e8:	00051507          	flh	fa0,0(a0)
    800002ec:	00251587          	flh	fa1,2(a0)
    800002f0:	00451607          	flh	fa2,4(a0)
    800002f4:	00651683          	lh	a3,6(a0)
    800002f8:	c4051553          	fcvt.w.h	a0,fa0,rtz
    800002fc:	001015f3          	fsflags	a1,zero
    80000300:	00000613          	li	a2,0
    80000304:	5ed51263          	bne	a0,a3,800008e8 <fail>
    80000308:	5ec59063          	bne	a1,a2,800008e8 <fail>

000000008000030c <test_12>:
    8000030c:	00c00193          	li	gp,12
    80000310:	00002517          	auipc	a0,0x2
    80000314:	d4050513          	add	a0,a0,-704 # 80002050 <test_12_data>
    80000318:	00051507          	flh	fa0,0(a0)
    8000031c:	00251587          	flh	fa1,2(a0)
    80000320:	00451607          	flh	fa2,4(a0)
    80000324:	00651683          	lh	a3,6(a0)
    80000328:	c4151553          	fcvt.wu.h	a0,fa0,rtz
    8000032c:	001015f3          	fsflags	a1,zero
    80000330:	01000613          	li	a2,16
    80000334:	5ad51a63          	bne	a0,a3,800008e8 <fail>
    80000338:	5ac59863          	bne	a1,a2,800008e8 <fail>

000000008000033c <test_13>:
    8000033c:	00d00193          	li	gp,13
    80000340:	00002517          	auipc	a0,0x2
    80000344:	d1a50513          	add	a0,a0,-742 # 8000205a <test_13_data>
    80000348:	00051507          	flh	fa0,0(a0)
    8000034c:	00251587          	flh	fa1,2(a0)
    80000350:	00451607          	flh	fa2,4(a0)
    80000354:	00651683          	lh	a3,6(a0)
    80000358:	c4151553          	fcvt.wu.h	a0,fa0,rtz
    8000035c:	001015f3          	fsflags	a1,zero
    80000360:	01000613          	li	a2,16
    80000364:	58d51263          	bne	a0,a3,800008e8 <fail>
    80000368:	58c59063          	bne	a1,a2,800008e8 <fail>

000000008000036c <test_14>:
    8000036c:	00e00193          	li	gp,14
    80000370:	00002517          	auipc	a0,0x2
    80000374:	cf450513          	add	a0,a0,-780 # 80002064 <test_14_data>
    80000378:	00051507          	flh	fa0,0(a0)
    8000037c:	00251587          	flh	fa1,2(a0)
    80000380:	00451607          	flh	fa2,4(a0)
    80000384:	00651683          	lh	a3,6(a0)
    80000388:	c4151553          	fcvt.wu.h	a0,fa0,rtz
    8000038c:	001015f3          	fsflags	a1,zero
    80000390:	00100613          	li	a2,1
    80000394:	54d51a63          	bne	a0,a3,800008e8 <fail>
    80000398:	54c59863          	bne	a1,a2,800008e8 <fail>

000000008000039c <test_15>:
    8000039c:	00f00193          	li	gp,15
    800003a0:	00002517          	auipc	a0,0x2
    800003a4:	cce50513          	add	a0,a0,-818 # 8000206e <test_15_data>
    800003a8:	00051507          	flh	fa0,0(a0)
    800003ac:	00251587          	flh	fa1,2(a0)
    800003b0:	00451607          	flh	fa2,4(a0)
    800003b4:	00651683          	lh	a3,6(a0)
    800003b8:	c4151553          	fcvt.wu.h	a0,fa0,rtz
    800003bc:	001015f3          	fsflags	a1,zero
    800003c0:	00100613          	li	a2,1
    800003c4:	52d51263          	bne	a0,a3,800008e8 <fail>
    800003c8:	52c59063          	bne	a1,a2,800008e8 <fail>

00000000800003cc <test_16>:
    800003cc:	01000193          	li	gp,16
    800003d0:	00002517          	auipc	a0,0x2
    800003d4:	ca850513          	add	a0,a0,-856 # 80002078 <test_16_data>
    800003d8:	00051507          	flh	fa0,0(a0)
    800003dc:	00251587          	flh	fa1,2(a0)
    800003e0:	00451607          	flh	fa2,4(a0)
    800003e4:	00651683          	lh	a3,6(a0)
    800003e8:	c4151553          	fcvt.wu.h	a0,fa0,rtz
    800003ec:	001015f3          	fsflags	a1,zero
    800003f0:	00000613          	li	a2,0
    800003f4:	4ed51a63          	bne	a0,a3,800008e8 <fail>
    800003f8:	4ec59863          	bne	a1,a2,800008e8 <fail>

00000000800003fc <test_17>:
    800003fc:	01100193          	li	gp,17
    80000400:	00002517          	auipc	a0,0x2
    80000404:	c8250513          	add	a0,a0,-894 # 80002082 <test_17_data>
    80000408:	00051507          	flh	fa0,0(a0)
    8000040c:	00251587          	flh	fa1,2(a0)
    80000410:	00451607          	flh	fa2,4(a0)
    80000414:	00651683          	lh	a3,6(a0)
    80000418:	c4151553          	fcvt.wu.h	a0,fa0,rtz
    8000041c:	001015f3          	fsflags	a1,zero
    80000420:	00100613          	li	a2,1
    80000424:	4cd51263          	bne	a0,a3,800008e8 <fail>
    80000428:	4cc59063          	bne	a1,a2,800008e8 <fail>

000000008000042c <test_18>:
    8000042c:	01200193          	li	gp,18
    80000430:	00002517          	auipc	a0,0x2
    80000434:	c5c50513          	add	a0,a0,-932 # 8000208c <test_18_data>
    80000438:	00051507          	flh	fa0,0(a0)
    8000043c:	00251587          	flh	fa1,2(a0)
    80000440:	00451607          	flh	fa2,4(a0)
    80000444:	00651683          	lh	a3,6(a0)
    80000448:	c4151553          	fcvt.wu.h	a0,fa0,rtz
    8000044c:	001015f3          	fsflags	a1,zero
    80000450:	01000613          	li	a2,16
    80000454:	48d51a63          	bne	a0,a3,800008e8 <fail>
    80000458:	48c59863          	bne	a1,a2,800008e8 <fail>

000000008000045c <test_19>:
    8000045c:	01300193          	li	gp,19
    80000460:	00002517          	auipc	a0,0x2
    80000464:	c3650513          	add	a0,a0,-970 # 80002096 <test_19_data>
    80000468:	00051507          	flh	fa0,0(a0)
    8000046c:	00251587          	flh	fa1,2(a0)
    80000470:	00451607          	flh	fa2,4(a0)
    80000474:	00651683          	lh	a3,6(a0)
    80000478:	c4151553          	fcvt.wu.h	a0,fa0,rtz
    8000047c:	001015f3          	fsflags	a1,zero
    80000480:	00000613          	li	a2,0
    80000484:	46d51263          	bne	a0,a3,800008e8 <fail>
    80000488:	46c59063          	bne	a1,a2,800008e8 <fail>

000000008000048c <test_22>:
    8000048c:	01600193          	li	gp,22
    80000490:	00002517          	auipc	a0,0x2
    80000494:	c1050513          	add	a0,a0,-1008 # 800020a0 <test_22_data>
    80000498:	00051507          	flh	fa0,0(a0)
    8000049c:	00251587          	flh	fa1,2(a0)
    800004a0:	00451607          	flh	fa2,4(a0)
    800004a4:	00651683          	lh	a3,6(a0)
    800004a8:	c4251553          	fcvt.l.h	a0,fa0,rtz
    800004ac:	001015f3          	fsflags	a1,zero
    800004b0:	00100613          	li	a2,1
    800004b4:	42d51a63          	bne	a0,a3,800008e8 <fail>
    800004b8:	42c59863          	bne	a1,a2,800008e8 <fail>

00000000800004bc <test_23>:
    800004bc:	01700193          	li	gp,23
    800004c0:	00002517          	auipc	a0,0x2
    800004c4:	bea50513          	add	a0,a0,-1046 # 800020aa <test_23_data>
    800004c8:	00051507          	flh	fa0,0(a0)
    800004cc:	00251587          	flh	fa1,2(a0)
    800004d0:	00451607          	flh	fa2,4(a0)
    800004d4:	00651683          	lh	a3,6(a0)
    800004d8:	c4251553          	fcvt.l.h	a0,fa0,rtz
    800004dc:	001015f3          	fsflags	a1,zero
    800004e0:	00000613          	li	a2,0
    800004e4:	40d51263          	bne	a0,a3,800008e8 <fail>
    800004e8:	40c59063          	bne	a1,a2,800008e8 <fail>

00000000800004ec <test_24>:
    800004ec:	01800193          	li	gp,24
    800004f0:	00002517          	auipc	a0,0x2
    800004f4:	bc450513          	add	a0,a0,-1084 # 800020b4 <test_24_data>
    800004f8:	00051507          	flh	fa0,0(a0)
    800004fc:	00251587          	flh	fa1,2(a0)
    80000500:	00451607          	flh	fa2,4(a0)
    80000504:	00651683          	lh	a3,6(a0)
    80000508:	c4251553          	fcvt.l.h	a0,fa0,rtz
    8000050c:	001015f3          	fsflags	a1,zero
    80000510:	00100613          	li	a2,1
    80000514:	3cd51a63          	bne	a0,a3,800008e8 <fail>
    80000518:	3cc59863          	bne	a1,a2,800008e8 <fail>

000000008000051c <test_25>:
    8000051c:	01900193          	li	gp,25
    80000520:	00002517          	auipc	a0,0x2
    80000524:	b9e50513          	add	a0,a0,-1122 # 800020be <test_25_data>
    80000528:	00051507          	flh	fa0,0(a0)
    8000052c:	00251587          	flh	fa1,2(a0)
    80000530:	00451607          	flh	fa2,4(a0)
    80000534:	00651683          	lh	a3,6(a0)
    80000538:	c4251553          	fcvt.l.h	a0,fa0,rtz
    8000053c:	001015f3          	fsflags	a1,zero
    80000540:	00100613          	li	a2,1
    80000544:	3ad51263          	bne	a0,a3,800008e8 <fail>
    80000548:	3ac59063          	bne	a1,a2,800008e8 <fail>

000000008000054c <test_26>:
    8000054c:	01a00193          	li	gp,26
    80000550:	00002517          	auipc	a0,0x2
    80000554:	b7850513          	add	a0,a0,-1160 # 800020c8 <test_26_data>
    80000558:	00051507          	flh	fa0,0(a0)
    8000055c:	00251587          	flh	fa1,2(a0)
    80000560:	00451607          	flh	fa2,4(a0)
    80000564:	00651683          	lh	a3,6(a0)
    80000568:	c4251553          	fcvt.l.h	a0,fa0,rtz
    8000056c:	001015f3          	fsflags	a1,zero
    80000570:	00000613          	li	a2,0
    80000574:	36d51a63          	bne	a0,a3,800008e8 <fail>
    80000578:	36c59863          	bne	a1,a2,800008e8 <fail>

000000008000057c <test_27>:
    8000057c:	01b00193          	li	gp,27
    80000580:	00002517          	auipc	a0,0x2
    80000584:	b5250513          	add	a0,a0,-1198 # 800020d2 <test_27_data>
    80000588:	00051507          	flh	fa0,0(a0)
    8000058c:	00251587          	flh	fa1,2(a0)
    80000590:	00451607          	flh	fa2,4(a0)
    80000594:	00651683          	lh	a3,6(a0)
    80000598:	c4251553          	fcvt.l.h	a0,fa0,rtz
    8000059c:	001015f3          	fsflags	a1,zero
    800005a0:	00100613          	li	a2,1
    800005a4:	34d51263          	bne	a0,a3,800008e8 <fail>
    800005a8:	34c59063          	bne	a1,a2,800008e8 <fail>

00000000800005ac <test_32>:
    800005ac:	02000193          	li	gp,32
    800005b0:	00002517          	auipc	a0,0x2
    800005b4:	b2c50513          	add	a0,a0,-1236 # 800020dc <test_32_data>
    800005b8:	00051507          	flh	fa0,0(a0)
    800005bc:	00251587          	flh	fa1,2(a0)
    800005c0:	00451607          	flh	fa2,4(a0)
    800005c4:	00651683          	lh	a3,6(a0)
    800005c8:	c4351553          	fcvt.lu.h	a0,fa0,rtz
    800005cc:	001015f3          	fsflags	a1,zero
    800005d0:	01000613          	li	a2,16
    800005d4:	30d51a63          	bne	a0,a3,800008e8 <fail>
    800005d8:	30c59863          	bne	a1,a2,800008e8 <fail>

00000000800005dc <test_33>:
    800005dc:	02100193          	li	gp,33
    800005e0:	00002517          	auipc	a0,0x2
    800005e4:	b0650513          	add	a0,a0,-1274 # 800020e6 <test_33_data>
    800005e8:	00051507          	flh	fa0,0(a0)
    800005ec:	00251587          	flh	fa1,2(a0)
    800005f0:	00451607          	flh	fa2,4(a0)
    800005f4:	00651683          	lh	a3,6(a0)
    800005f8:	c4351553          	fcvt.lu.h	a0,fa0,rtz
    800005fc:	001015f3          	fsflags	a1,zero
    80000600:	01000613          	li	a2,16
    80000604:	2ed51263          	bne	a0,a3,800008e8 <fail>
    80000608:	2ec59063          	bne	a1,a2,800008e8 <fail>

000000008000060c <test_34>:
    8000060c:	02200193          	li	gp,34
    80000610:	00002517          	auipc	a0,0x2
    80000614:	ae050513          	add	a0,a0,-1312 # 800020f0 <test_34_data>
    80000618:	00051507          	flh	fa0,0(a0)
    8000061c:	00251587          	flh	fa1,2(a0)
    80000620:	00451607          	flh	fa2,4(a0)
    80000624:	00651683          	lh	a3,6(a0)
    80000628:	c4351553          	fcvt.lu.h	a0,fa0,rtz
    8000062c:	001015f3          	fsflags	a1,zero
    80000630:	00100613          	li	a2,1
    80000634:	2ad51a63          	bne	a0,a3,800008e8 <fail>
    80000638:	2ac59863          	bne	a1,a2,800008e8 <fail>

000000008000063c <test_35>:
    8000063c:	02300193          	li	gp,35
    80000640:	00002517          	auipc	a0,0x2
    80000644:	aba50513          	add	a0,a0,-1350 # 800020fa <test_35_data>
    80000648:	00051507          	flh	fa0,0(a0)
    8000064c:	00251587          	flh	fa1,2(a0)
    80000650:	00451607          	flh	fa2,4(a0)
    80000654:	00651683          	lh	a3,6(a0)
    80000658:	c4351553          	fcvt.lu.h	a0,fa0,rtz
    8000065c:	001015f3          	fsflags	a1,zero
    80000660:	00100613          	li	a2,1
    80000664:	28d51263          	bne	a0,a3,800008e8 <fail>
    80000668:	28c59063          	bne	a1,a2,800008e8 <fail>

000000008000066c <test_36>:
    8000066c:	02400193          	li	gp,36
    80000670:	00002517          	auipc	a0,0x2
    80000674:	a9450513          	add	a0,a0,-1388 # 80002104 <test_36_data>
    80000678:	00051507          	flh	fa0,0(a0)
    8000067c:	00251587          	flh	fa1,2(a0)
    80000680:	00451607          	flh	fa2,4(a0)
    80000684:	00651683          	lh	a3,6(a0)
    80000688:	c4351553          	fcvt.lu.h	a0,fa0,rtz
    8000068c:	001015f3          	fsflags	a1,zero
    80000690:	00000613          	li	a2,0
    80000694:	24d51a63          	bne	a0,a3,800008e8 <fail>
    80000698:	24c59863          	bne	a1,a2,800008e8 <fail>

000000008000069c <test_37>:
    8000069c:	02500193          	li	gp,37
    800006a0:	00002517          	auipc	a0,0x2
    800006a4:	a6e50513          	add	a0,a0,-1426 # 8000210e <test_37_data>
    800006a8:	00051507          	flh	fa0,0(a0)
    800006ac:	00251587          	flh	fa1,2(a0)
    800006b0:	00451607          	flh	fa2,4(a0)
    800006b4:	00651683          	lh	a3,6(a0)
    800006b8:	c4351553          	fcvt.lu.h	a0,fa0,rtz
    800006bc:	001015f3          	fsflags	a1,zero
    800006c0:	00100613          	li	a2,1
    800006c4:	22d51263          	bne	a0,a3,800008e8 <fail>
    800006c8:	22c59063          	bne	a1,a2,800008e8 <fail>

00000000800006cc <test_38>:
    800006cc:	02600193          	li	gp,38
    800006d0:	00002517          	auipc	a0,0x2
    800006d4:	a4850513          	add	a0,a0,-1464 # 80002118 <test_38_data>
    800006d8:	00051507          	flh	fa0,0(a0)
    800006dc:	00251587          	flh	fa1,2(a0)
    800006e0:	00451607          	flh	fa2,4(a0)
    800006e4:	00651683          	lh	a3,6(a0)
    800006e8:	c4351553          	fcvt.lu.h	a0,fa0,rtz
    800006ec:	001015f3          	fsflags	a1,zero
    800006f0:	01000613          	li	a2,16
    800006f4:	1ed51a63          	bne	a0,a3,800008e8 <fail>
    800006f8:	1ec59863          	bne	a1,a2,800008e8 <fail>

00000000800006fc <test_42>:
    800006fc:	02a00193          	li	gp,42
    80000700:	00002097          	auipc	ra,0x2
    80000704:	a3008093          	add	ra,ra,-1488 # 80002130 <begin_signature>
    80000708:	0000a087          	flw	ft1,0(ra)
    8000070c:	c400f0d3          	fcvt.w.h	ra,ft1
    80000710:	800003b7          	lui	t2,0x80000
    80000714:	fff3839b          	addw	t2,t2,-1 # 7fffffff <_start-0x1>
    80000718:	1c709863          	bne	ra,t2,800008e8 <fail>

000000008000071c <test_43>:
    8000071c:	02b00193          	li	gp,43
    80000720:	00002097          	auipc	ra,0x2
    80000724:	a1008093          	add	ra,ra,-1520 # 80002130 <begin_signature>
    80000728:	0080a087          	flw	ft1,8(ra)
    8000072c:	c400f0d3          	fcvt.w.h	ra,ft1
    80000730:	800003b7          	lui	t2,0x80000
    80000734:	1a709a63          	bne	ra,t2,800008e8 <fail>

0000000080000738 <test_44>:
    80000738:	02c00193          	li	gp,44
    8000073c:	00002097          	auipc	ra,0x2
    80000740:	9f408093          	add	ra,ra,-1548 # 80002130 <begin_signature>
    80000744:	0000a087          	flw	ft1,0(ra)
    80000748:	c420f0d3          	fcvt.l.h	ra,ft1
    8000074c:	fff0039b          	addw	t2,zero,-1
    80000750:	03f39393          	sll	t2,t2,0x3f
    80000754:	fff38393          	add	t2,t2,-1 # ffffffff7fffffff <_end+0xfffffffeffffdebf>
    80000758:	18709863          	bne	ra,t2,800008e8 <fail>

000000008000075c <test_45>:
    8000075c:	02d00193          	li	gp,45
    80000760:	00002097          	auipc	ra,0x2
    80000764:	9d008093          	add	ra,ra,-1584 # 80002130 <begin_signature>
    80000768:	0080a087          	flw	ft1,8(ra)
    8000076c:	c420f0d3          	fcvt.l.h	ra,ft1
    80000770:	fff0039b          	addw	t2,zero,-1
    80000774:	03f39393          	sll	t2,t2,0x3f
    80000778:	16709863          	bne	ra,t2,800008e8 <fail>

000000008000077c <test_52>:
    8000077c:	03400193          	li	gp,52
    80000780:	00002097          	auipc	ra,0x2
    80000784:	9b008093          	add	ra,ra,-1616 # 80002130 <begin_signature>
    80000788:	0040a087          	flw	ft1,4(ra)
    8000078c:	c400f0d3          	fcvt.w.h	ra,ft1
    80000790:	800003b7          	lui	t2,0x80000
    80000794:	fff3839b          	addw	t2,t2,-1 # 7fffffff <_start-0x1>
    80000798:	14709863          	bne	ra,t2,800008e8 <fail>

000000008000079c <test_53>:
    8000079c:	03500193          	li	gp,53
    800007a0:	00002097          	auipc	ra,0x2
    800007a4:	99008093          	add	ra,ra,-1648 # 80002130 <begin_signature>
    800007a8:	00c0a087          	flw	ft1,12(ra)
    800007ac:	c400f0d3          	fcvt.w.h	ra,ft1
    800007b0:	800003b7          	lui	t2,0x80000
    800007b4:	fff3839b          	addw	t2,t2,-1 # 7fffffff <_start-0x1>
    800007b8:	12709863          	bne	ra,t2,800008e8 <fail>

00000000800007bc <test_54>:
    800007bc:	03600193          	li	gp,54
    800007c0:	00002097          	auipc	ra,0x2
    800007c4:	97008093          	add	ra,ra,-1680 # 80002130 <begin_signature>
    800007c8:	0040a087          	flw	ft1,4(ra)
    800007cc:	c420f0d3          	fcvt.l.h	ra,ft1
    800007d0:	fff0039b          	addw	t2,zero,-1
    800007d4:	03f39393          	sll	t2,t2,0x3f
    800007d8:	fff38393          	add	t2,t2,-1
    800007dc:	10709663          	bne	ra,t2,800008e8 <fail>

00000000800007e0 <test_55>:
    800007e0:	03700193          	li	gp,55
    800007e4:	00002097          	auipc	ra,0x2
    800007e8:	94c08093          	add	ra,ra,-1716 # 80002130 <begin_signature>
    800007ec:	00c0a087          	flw	ft1,12(ra)
    800007f0:	c420f0d3          	fcvt.l.h	ra,ft1
    800007f4:	fff0039b          	addw	t2,zero,-1
    800007f8:	03f39393          	sll	t2,t2,0x3f
    800007fc:	fff38393          	add	t2,t2,-1
    80000800:	0e709463          	bne	ra,t2,800008e8 <fail>

0000000080000804 <test_62>:
    80000804:	03e00193          	li	gp,62
    80000808:	00002097          	auipc	ra,0x2
    8000080c:	92808093          	add	ra,ra,-1752 # 80002130 <begin_signature>
    80000810:	0000a087          	flw	ft1,0(ra)
    80000814:	c410f0d3          	fcvt.wu.h	ra,ft1
    80000818:	fff00393          	li	t2,-1
    8000081c:	0c709663          	bne	ra,t2,800008e8 <fail>

0000000080000820 <test_63>:
    80000820:	03f00193          	li	gp,63
    80000824:	00002097          	auipc	ra,0x2
    80000828:	90c08093          	add	ra,ra,-1780 # 80002130 <begin_signature>
    8000082c:	0040a087          	flw	ft1,4(ra)
    80000830:	c410f0d3          	fcvt.wu.h	ra,ft1
    80000834:	fff00393          	li	t2,-1
    80000838:	0a709863          	bne	ra,t2,800008e8 <fail>

000000008000083c <test_64>:
    8000083c:	04000193          	li	gp,64
    80000840:	00002097          	auipc	ra,0x2
    80000844:	8f008093          	add	ra,ra,-1808 # 80002130 <begin_signature>
    80000848:	0080a087          	flw	ft1,8(ra)
    8000084c:	c410f0d3          	fcvt.wu.h	ra,ft1
    80000850:	00000393          	li	t2,0
    80000854:	08709a63          	bne	ra,t2,800008e8 <fail>

0000000080000858 <test_65>:
    80000858:	04100193          	li	gp,65
    8000085c:	00002097          	auipc	ra,0x2
    80000860:	8d408093          	add	ra,ra,-1836 # 80002130 <begin_signature>
    80000864:	00c0a087          	flw	ft1,12(ra)
    80000868:	c410f0d3          	fcvt.wu.h	ra,ft1
    8000086c:	fff00393          	li	t2,-1
    80000870:	06709c63          	bne	ra,t2,800008e8 <fail>

0000000080000874 <test_66>:
    80000874:	04200193          	li	gp,66
    80000878:	00002097          	auipc	ra,0x2
    8000087c:	8b808093          	add	ra,ra,-1864 # 80002130 <begin_signature>
    80000880:	0000a087          	flw	ft1,0(ra)
    80000884:	c430f0d3          	fcvt.lu.h	ra,ft1
    80000888:	fff00393          	li	t2,-1
    8000088c:	04709e63          	bne	ra,t2,800008e8 <fail>

0000000080000890 <test_67>:
    80000890:	04300193          	li	gp,67
    80000894:	00002097          	auipc	ra,0x2
    80000898:	89c08093          	add	ra,ra,-1892 # 80002130 <begin_signature>
    8000089c:	0040a087          	flw	ft1,4(ra)
    800008a0:	c430f0d3          	fcvt.lu.h	ra,ft1
    800008a4:	fff00393          	li	t2,-1
    800008a8:	04709063          	bne	ra,t2,800008e8 <fail>

00000000800008ac <test_68>:
    800008ac:	04400193          	li	gp,68
    800008b0:	00002097          	auipc	ra,0x2
    800008b4:	88008093          	add	ra,ra,-1920 # 80002130 <begin_signature>
    800008b8:	0080a087          	flw	ft1,8(ra)
    800008bc:	c430f0d3          	fcvt.lu.h	ra,ft1
    800008c0:	00000393          	li	t2,0
    800008c4:	02709263          	bne	ra,t2,800008e8 <fail>

00000000800008c8 <test_69>:
    800008c8:	04500193          	li	gp,69
    800008cc:	00002097          	auipc	ra,0x2
    800008d0:	86408093          	add	ra,ra,-1948 # 80002130 <begin_signature>
    800008d4:	00c0a087          	flw	ft1,12(ra)
    800008d8:	c430f0d3          	fcvt.lu.h	ra,ft1
    800008dc:	fff00393          	li	t2,-1
    800008e0:	00709463          	bne	ra,t2,800008e8 <fail>
    800008e4:	02301063          	bne	zero,gp,80000904 <pass>

00000000800008e8 <fail>:
    800008e8:	0ff0000f          	fence
    800008ec:	00018063          	beqz	gp,800008ec <fail+0x4>
    800008f0:	00119193          	sll	gp,gp,0x1
    800008f4:	0011e193          	or	gp,gp,1
    800008f8:	05d00893          	li	a7,93
    800008fc:	00018513          	mv	a0,gp
    80000900:	0000006b          	.word	0x0000006b

0000000080000904 <pass>:
    80000904:	0ff0000f          	fence
    80000908:	00100193          	li	gp,1
    8000090c:	05d00893          	li	a7,93
    80000910:	00000513          	li	a0,0
    80000914:	0000006b          	.word	0x0000006b
    80000918:	c0001073          	unimp
	...
